target datalayout = "e-m:e-p270:32:32-p271:32:32-p272:64:64-i64:64-i128:128-f80:128-n8:16:32:64-S128"
target triple = "x86_64-pc-linux-gnu"

%struct.BackendGlobalData = type <{ ptr, ptr, i8, i8, i8, i8, i8, i8, i8, i8, i8, [3 x i8], i32, ptr, ptr, ptr, ptr, ptr, ptr, ptr, ptr, ptr, ptr, ptr, ptr, ptr, i32, %struct.jvmtiCapabilities, i8, [3 x i8], %struct.jvmtiEventCallbacks, ptr, ptr, ptr, ptr, ptr, ptr, ptr, i32, [4 x i8], ptr, i64, i32, [4 x i8], ptr, i32, i32, i8, i8, [6 x i8] }>
%struct.jvmtiCapabilities = type { i64, i64 }
%struct.jvmtiEventCallbacks = type { ptr, ptr, ptr, ptr, ptr, ptr, ptr, ptr, ptr, ptr, ptr, ptr, ptr, ptr, ptr, ptr, ptr, ptr, ptr, ptr, ptr, ptr, ptr, ptr, ptr, ptr, ptr, ptr, ptr, ptr, ptr, ptr, ptr, ptr, ptr, ptr, ptr, ptr, ptr }

@gdata = external global ptr, align 8
@trackingEnv = internal global ptr null, align 8
@.str = private unnamed_addr constant [53 x i8] c"src/jdk.jdwp.agent/share/native/libjdwp/classTrack.c\00", align 1
@.str.1 = private unnamed_addr constant [25 x i8] c"jvmti_env == trackingEnv\00", align 1

; Function Attrs: nounwind uwtable
define hidden void @cbTrackingClassPrepare(ptr noundef %0, ptr noundef %1, ptr noundef %2, ptr noundef %3) #0 {
  %5 = alloca ptr, align 8
  %6 = alloca ptr, align 8
  %7 = alloca ptr, align 8
  %8 = alloca ptr, align 8
  store ptr %0, ptr %5, align 8
  store ptr %1, ptr %6, align 8
  store ptr %2, ptr %7, align 8
  store ptr %3, ptr %8, align 8
  br label %9

9:                                                ; preds = %4
  %10 = load ptr, ptr @gdata, align 8
  %11 = icmp ne ptr %10, null
  br i1 %11, label %12, label %23

12:                                               ; preds = %9
  %13 = load ptr, ptr @gdata, align 8
  %14 = getelementptr inbounds %struct.BackendGlobalData, ptr %13, i32 0, i32 3
  %15 = load i8, ptr %14, align 1
  %16 = zext i8 %15 to i32
  %17 = icmp ne i32 %16, 0
  br i1 %17, label %18, label %23

18:                                               ; preds = %12
  %19 = load ptr, ptr %5, align 8
  %20 = load ptr, ptr @trackingEnv, align 8
  %21 = icmp eq ptr %19, %20
  br i1 %21, label %23, label %22

22:                                               ; preds = %18
  call void @jdiAssertionFailed(ptr noundef @.str, i32 noundef 67, ptr noundef @.str.1)
  br label %23

23:                                               ; preds = %22, %18, %12, %9
  br label %24

24:                                               ; preds = %23
  %25 = load ptr, ptr %6, align 8
  %26 = load ptr, ptr %8, align 8
  call void @addPreparedClass(ptr noundef %25, ptr noundef %26)
  ret void
}