; Function Attrs: nounwind uwtable
define hidden void @cbTrackingClassPrepare(ptr noundef readnone %0, ptr nocapture readnone %1, ptr nocapture readnone %2, ptr noundef %3) #0 {
  %5 = load ptr, ptr @gdata, align 8
  %.not = icmp eq ptr %5, null
  br i1 %.not, label %12, label %6

6:                                                ; preds = %4
  %7 = getelementptr inbounds i8, ptr %5, i64 17
  %8 = load i8, ptr %7, align 1
  %.not3 = icmp eq i8 %8, 0
  %9 = load ptr, ptr @trackingEnv, align 8
  %10 = icmp eq ptr %9, %0
  %or.cond = select i1 %.not3, i1 true, i1 %10
  br i1 %or.cond, label %12, label %11

11:                                               ; preds = %6
  tail call void @jdiAssertionFailed(ptr noundef nonnull @.str, i32 noundef 67, ptr noundef nonnull @.str.1) #5
  br label %12

12:                                               ; preds = %4, %6, %11
  tail call fastcc void @addPreparedClass(ptr noundef %3)
  ret void
}